target datalayout = "e-m:e-p270:32:32-p271:32:32-p272:64:64-i64:64-i128:128-f80:128-n8:16:32:64-S128"
target triple = "x86_64-pc-linux-gnu"

%"class.std::shared_ptr" = type { %"class.std::__shared_ptr" }
%"class.std::__shared_ptr" = type { ptr, %"class.std::__shared_count" }
%"class.std::__shared_count" = type { ptr }
%"struct.OpenColorIO_v2_5dev::CDLOpData::ChannelParams" = type { [3 x double] }
%"class.std::_Sp_counted_base" = type { ptr, i32, i32 }
%"class.std::_Sp_counted_ptr" = type { %"class.std::_Sp_counted_base", ptr }

; Function Attrs: mustprogress nounwind uwtable
define linkonce_odr hidden void @_ZNSt16_Sp_counted_baseILN9__gnu_cxx12_Lock_policyE2EEC2Ev(ptr noundef nonnull align 8 dereferenceable(16) %0) unnamed_addr #8 comdat align 2 {
  %2 = alloca ptr, align 8
  store ptr %0, ptr %2, align 8, !tbaa !80
  %3 = load ptr, ptr %2, align 8
  store ptr getelementptr inbounds inrange(-16, 40) ({ [7 x ptr] }, ptr @_ZTVSt16_Sp_counted_baseILN9__gnu_cxx12_Lock_policyE2EE, i32 0, i32 0, i32 2), ptr %3, align 8, !tbaa !38
  %4 = getelementptr inbounds nuw %"class.std::_Sp_counted_base", ptr %3, i32 0, i32 1
  store i32 1, ptr %4, align 8, !tbaa !89
  %5 = getelementptr inbounds nuw %"class.std::_Sp_counted_base", ptr %3, i32 0, i32 2
  store i32 1, ptr %5, align 4, !tbaa !91
  ret void
}

; Function Attrs: mustprogress nounwind uwtable
define linkonce_odr hidden void @_ZNSt15_Sp_counted_ptrIPN19OpenColorIO_v2_5dev9CDLOpDataELN9__gnu_cxx12_Lock_policyE2EEC2ES2_(ptr noundef nonnull align 8 dereferenceable(24) %0, ptr noundef %1) unnamed_addr #8 comdat align 2 {
  %3 = alloca ptr, align 8
  %4 = alloca ptr, align 8
  store ptr %0, ptr %3, align 8, !tbaa !253
  store ptr %1, ptr %4, align 8, !tbaa !20
  %5 = load ptr, ptr %3, align 8
  call void @_ZNSt16_Sp_counted_baseILN9__gnu_cxx12_Lock_policyE2EEC2Ev(ptr noundef nonnull align 8 dereferenceable(16) %5) #3
  store ptr getelementptr inbounds inrange(-16, 40) ({ [7 x ptr] }, ptr @_ZTVSt15_Sp_counted_ptrIPN19OpenColorIO_v2_5dev9CDLOpDataELN9__gnu_cxx12_Lock_policyE2EE, i32 0, i32 0, i32 2), ptr %5, align 8, !tbaa !38
  %6 = getelementptr inbounds nuw %"class.std::_Sp_counted_ptr", ptr %5, i32 0, i32 1
  %7 = load ptr, ptr %4, align 8, !tbaa !20
  store ptr %7, ptr %6, align 8, !tbaa !255
  ret void
}

; Function Attrs: mustprogress uwtable
define linkonce_odr hidden void @_ZNSt14__shared_countILN9__gnu_cxx12_Lock_policyE2EEC2IPN19OpenColorIO_v2_5dev9CDLOpDataEEET_(ptr noundef nonnull align 8 dereferenceable(8) %0, ptr noundef %1) unnamed_addr #4 comdat align 2 personality ptr @__gxx_personality_v0 {
  %3 = alloca ptr, align 8
  %4 = alloca ptr, align 8
  %5 = alloca ptr, align 8
  %6 = alloca i32, align 4
  store ptr %0, ptr %3, align 8, !tbaa !77
  store ptr %1, ptr %4, align 8, !tbaa !20
  %7 = load ptr, ptr %3, align 8
  %8 = getelementptr inbounds nuw %"class.std::__shared_count", ptr %7, i32 0, i32 0
  store ptr null, ptr %8, align 8, !tbaa !79
  %9 = invoke noalias noundef nonnull ptr @_Znwm(i64 noundef 24) #21
          to label %10 unwind label %13

10:                                               ; preds = %2
  %11 = load ptr, ptr %4, align 8, !tbaa !20
  call void @_ZNSt15_Sp_counted_ptrIPN19OpenColorIO_v2_5dev9CDLOpDataELN9__gnu_cxx12_Lock_policyE2EEC2ES2_(ptr noundef nonnull align 8 dereferenceable(24) %9, ptr noundef %11) #3
  %12 = getelementptr inbounds nuw %"class.std::__shared_count", ptr %7, i32 0, i32 0
  store ptr %9, ptr %12, align 8, !tbaa !79
  br label %32

13:                                               ; preds = %2
  %14 = landingpad { ptr, i32 }
          catch ptr null
  %15 = extractvalue { ptr, i32 } %14, 0
  store ptr %15, ptr %5, align 8
  %16 = extractvalue { ptr, i32 } %14, 1
  store i32 %16, ptr %6, align 4
  br label %17

17:                                               ; preds = %13
  %18 = load ptr, ptr %5, align 8
  %19 = call ptr @__cxa_begin_catch(ptr %18) #3
  %20 = load ptr, ptr %4, align 8, !tbaa !20
  %21 = icmp eq ptr %20, null
  br i1 %21, label %26, label %22

22:                                               ; preds = %17
  %23 = load ptr, ptr %20, align 8, !tbaa !38
  %24 = getelementptr inbounds ptr, ptr %23, i64 1
  %25 = load ptr, ptr %24, align 8
  call void %25(ptr noundef nonnull align 8 dereferenceable(256) %20) #3
  br label %26

26:                                               ; preds = %22, %17
  invoke void @__cxa_rethrow() #23
          to label %41 unwind label %27

27:                                               ; preds = %26
  %28 = landingpad { ptr, i32 }
          cleanup
  %29 = extractvalue { ptr, i32 } %28, 0
  store ptr %29, ptr %5, align 8
  %30 = extractvalue { ptr, i32 } %28, 1
  store i32 %30, ptr %6, align 4
  invoke void @__cxa_end_catch()
          to label %31 unwind label %38

31:                                               ; preds = %27
  br label %33

32:                                               ; preds = %10
  ret void

33:                                               ; preds = %31
  %34 = load ptr, ptr %5, align 8
  %35 = load i32, ptr %6, align 4
  %36 = insertvalue { ptr, i32 } poison, ptr %34, 0
  %37 = insertvalue { ptr, i32 } %36, i32 %35, 1
  resume { ptr, i32 } %37

38:                                               ; preds = %27
  %39 = landingpad { ptr, i32 }
          catch ptr null
  %40 = extractvalue { ptr, i32 } %39, 0
  call void @__clang_call_terminate(ptr %40) #24
  unreachable

41:                                               ; preds = %26
  unreachable
}

; Function Attrs: mustprogress nounwind uwtable
define linkonce_odr hidden void @_ZNSt12__shared_ptrIN19OpenColorIO_v2_5dev9CDLOpDataELN9__gnu_cxx12_Lock_policyE2EE31_M_enable_shared_from_this_withIS1_S1_EENSt9enable_ifIXntsr15__has_esft_baseIT0_EE5valueEvE4typeEPT_(ptr noundef nonnull align 8 dereferenceable(16) %0, ptr noundef %1) #8 comdat align 2 {
  %3 = alloca ptr, align 8
  %4 = alloca ptr, align 8
  store ptr %0, ptr %3, align 8, !tbaa !95
  store ptr %1, ptr %4, align 8, !tbaa !20
  ret void
}

; Function Attrs: mustprogress uwtable
define linkonce_odr hidden void @_ZNSt14__shared_countILN9__gnu_cxx12_Lock_policyE2EEC2IPN19OpenColorIO_v2_5dev9CDLOpDataEEET_St17integral_constantIbLb0EE(ptr noundef nonnull align 8 dereferenceable(8) %0, ptr noundef %1) unnamed_addr #4 comdat align 2 {
  %3 = alloca ptr, align 8
  %4 = alloca ptr, align 8
  store ptr %0, ptr %3, align 8, !tbaa !77
  store ptr %1, ptr %4, align 8, !tbaa !20
  %5 = load ptr, ptr %3, align 8
  %6 = load ptr, ptr %4, align 8, !tbaa !20
  call void @_ZNSt14__shared_countILN9__gnu_cxx12_Lock_policyE2EEC2IPN19OpenColorIO_v2_5dev9CDLOpDataEEET_(ptr noundef nonnull align 8 dereferenceable(8) %5, ptr noundef %6)
  ret void
}

; Function Attrs: mustprogress uwtable
define linkonce_odr hidden void @_ZNSt12__shared_ptrIN19OpenColorIO_v2_5dev9CDLOpDataELN9__gnu_cxx12_Lock_policyE2EEC2IS1_vEEPT_(ptr noundef nonnull align 8 dereferenceable(16) %0, ptr noundef %1) unnamed_addr #4 comdat align 2 {
  %3 = alloca ptr, align 8
  %4 = alloca ptr, align 8
  store ptr %0, ptr %3, align 8, !tbaa !95
  store ptr %1, ptr %4, align 8, !tbaa !20
  %5 = load ptr, ptr %3, align 8
  %6 = getelementptr inbounds nuw %"class.std::__shared_ptr", ptr %5, i32 0, i32 0
  %7 = load ptr, ptr %4, align 8, !tbaa !20
  store ptr %7, ptr %6, align 8, !tbaa !97
  %8 = getelementptr inbounds nuw %"class.std::__shared_ptr", ptr %5, i32 0, i32 1
  %9 = load ptr, ptr %4, align 8, !tbaa !20
  call void @_ZNSt14__shared_countILN9__gnu_cxx12_Lock_policyE2EEC2IPN19OpenColorIO_v2_5dev9CDLOpDataEEET_St17integral_constantIbLb0EE(ptr noundef nonnull align 8 dereferenceable(8) %8, ptr noundef %9)
  %10 = load ptr, ptr %4, align 8, !tbaa !20
  call void @_ZNSt12__shared_ptrIN19OpenColorIO_v2_5dev9CDLOpDataELN9__gnu_cxx12_Lock_policyE2EE31_M_enable_shared_from_this_withIS1_S1_EENSt9enable_ifIXntsr15__has_esft_baseIT0_EE5valueEvE4typeEPT_(ptr noundef nonnull align 8 dereferenceable(16) %5, ptr noundef %10) #3
  ret void
}

; Function Attrs: mustprogress nounwind uwtable
define linkonce_odr hidden void @_ZN19OpenColorIO_v2_5dev9CDLOpData13ChannelParams6setRGBEddd(ptr noundef nonnull align 8 dereferenceable(24) %0, double noundef %1, double noundef %2, double noundef %3) #8 comdat align 2 {
  %5 = alloca ptr, align 8
  %6 = alloca double, align 8
  %7 = alloca double, align 8
  %8 = alloca double, align 8
  store ptr %0, ptr %5, align 8, !tbaa !16
  store double %1, ptr %6, align 8, !tbaa !12
  store double %2, ptr %7, align 8, !tbaa !12
  store double %3, ptr %8, align 8, !tbaa !12
  %9 = load ptr, ptr %5, align 8
  %10 = load double, ptr %6, align 8, !tbaa !12
  %11 = getelementptr inbounds nuw %"struct.OpenColorIO_v2_5dev::CDLOpData::ChannelParams", ptr %9, i32 0, i32 0
  %12 = getelementptr inbounds [3 x double], ptr %11, i64 0, i64 0
  store double %10, ptr %12, align 8, !tbaa !12
  %13 = load double, ptr %7, align 8, !tbaa !12
  %14 = getelementptr inbounds nuw %"struct.OpenColorIO_v2_5dev::CDLOpData::ChannelParams", ptr %9, i32 0, i32 0
  %15 = getelementptr inbounds [3 x double], ptr %14, i64 0, i64 1
  store double %13, ptr %15, align 8, !tbaa !12
  %16 = load double, ptr %8, align 8, !tbaa !12
  %17 = getelementptr inbounds nuw %"struct.OpenColorIO_v2_5dev::CDLOpData::ChannelParams", ptr %9, i32 0, i32 0
  %18 = getelementptr inbounds [3 x double], ptr %17, i64 0, i64 2
  store double %16, ptr %18, align 8, !tbaa !12
  ret void
}

; Function Attrs: mustprogress uwtable
define linkonce_odr hidden void @_ZNSt10shared_ptrIN19OpenColorIO_v2_5dev9CDLOpDataEEC2IS1_vEEPT_(ptr noundef nonnull align 8 dereferenceable(16) %0, ptr noundef %1) unnamed_addr #4 comdat align 2 {
  %3 = alloca ptr, align 8
  %4 = alloca ptr, align 8
  store ptr %0, ptr %3, align 8, !tbaa !18
  store ptr %1, ptr %4, align 8, !tbaa !20
  %5 = load ptr, ptr %3, align 8
  %6 = load ptr, ptr %4, align 8, !tbaa !20
  call void @_ZNSt12__shared_ptrIN19OpenColorIO_v2_5dev9CDLOpDataELN9__gnu_cxx12_Lock_policyE2EEC2IS1_vEEPT_(ptr noundef nonnull align 8 dereferenceable(16) %5, ptr noundef %6)
  ret void
}

; Function Attrs: mustprogress uwtable
define linkonce_odr hidden void @_ZN19OpenColorIO_v2_5dev9CDLOpData13ChannelParamsC2Eddd(ptr noundef nonnull align 8 dereferenceable(24) %0, double noundef %1, double noundef %2, double noundef %3) unnamed_addr #4 comdat align 2 {
  %5 = alloca ptr, align 8
  %6 = alloca double, align 8
  %7 = alloca double, align 8
  %8 = alloca double, align 8
  store ptr %0, ptr %5, align 8, !tbaa !16
  store double %1, ptr %6, align 8, !tbaa !12
  store double %2, ptr %7, align 8, !tbaa !12
  store double %3, ptr %8, align 8, !tbaa !12
  %9 = load ptr, ptr %5, align 8
  %10 = load double, ptr %6, align 8, !tbaa !12
  %11 = load double, ptr %7, align 8, !tbaa !12
  %12 = load double, ptr %8, align 8, !tbaa !12
  call void @_ZN19OpenColorIO_v2_5dev9CDLOpData13ChannelParams6setRGBEddd(ptr noundef nonnull align 8 dereferenceable(24) %9, double noundef %10, double noundef %11, double noundef %12)
  ret void
}

; Function Attrs: mustprogress uwtable
define hidden void @_ZN19OpenColorIO_v2_5dev11CreateCDLOpERNS_10OpRcPtrVecENS_9CDLOpData5StyleEPKdS5_S5_dNS_18TransformDirectionE(ptr noundef nonnull align 8 dereferenceable(144) %0, i32 noundef %1, ptr noundef %2, ptr noundef %3, ptr noundef %4, double noundef %5, i32 noundef %6) #4 personality ptr @__gxx_personality_v0 {
  %8 = alloca ptr, align 8
  %9 = alloca i32, align 4
  %10 = alloca ptr, align 8
  %11 = alloca ptr, align 8
  %12 = alloca ptr, align 8
  %13 = alloca double, align 8
  %14 = alloca i32, align 4
  %15 = alloca %"class.std::shared_ptr", align 8
  %16 = alloca %"struct.OpenColorIO_v2_5dev::CDLOpData::ChannelParams", align 8
  %17 = alloca ptr, align 8
  %18 = alloca i32, align 4
  %19 = alloca %"struct.OpenColorIO_v2_5dev::CDLOpData::ChannelParams", align 8
  %20 = alloca %"struct.OpenColorIO_v2_5dev::CDLOpData::ChannelParams", align 8
  %21 = alloca i1, align 1
  store ptr %0, ptr %8, align 8, !tbaa !3
  store i32 %1, ptr %9, align 4, !tbaa !8
  store ptr %2, ptr %10, align 8, !tbaa !10
  store ptr %3, ptr %11, align 8, !tbaa !10
  store ptr %4, ptr %12, align 8, !tbaa !10
  store double %5, ptr %13, align 8, !tbaa !12
  store i32 %6, ptr %14, align 4, !tbaa !14
  call void @llvm.lifetime.start.p0(i64 16, ptr %15) #3
  %22 = call noalias noundef nonnull ptr @_Znwm(i64 noundef 256) #21
  store i1 true, ptr %21, align 1
  call void @llvm.lifetime.start.p0(i64 24, ptr %16) #3
  %23 = load ptr, ptr %10, align 8, !tbaa !10
  %24 = getelementptr inbounds double, ptr %23, i64 0
  %25 = load double, ptr %24, align 8, !tbaa !12
  %26 = load ptr, ptr %10, align 8, !tbaa !10
  %27 = getelementptr inbounds double, ptr %26, i64 1
  %28 = load double, ptr %27, align 8, !tbaa !12
  %29 = load ptr, ptr %10, align 8, !tbaa !10
  %30 = getelementptr inbounds double, ptr %29, i64 2
  %31 = load double, ptr %30, align 8, !tbaa !12
  invoke void @_ZN19OpenColorIO_v2_5dev9CDLOpData13ChannelParamsC2Eddd(ptr noundef nonnull align 8 dereferenceable(24) %16, double noundef %25, double noundef %28, double noundef %31)
          to label %32 unwind label %59

32:                                               ; preds = %7
  call void @llvm.lifetime.start.p0(i64 24, ptr %19) #3
  %33 = load ptr, ptr %11, align 8, !tbaa !10
  %34 = getelementptr inbounds double, ptr %33, i64 0
  %35 = load double, ptr %34, align 8, !tbaa !12
  %36 = load ptr, ptr %11, align 8, !tbaa !10
  %37 = getelementptr inbounds double, ptr %36, i64 1
  %38 = load double, ptr %37, align 8, !tbaa !12
  %39 = load ptr, ptr %11, align 8, !tbaa !10
  %40 = getelementptr inbounds double, ptr %39, i64 2
  %41 = load double, ptr %40, align 8, !tbaa !12
  invoke void @_ZN19OpenColorIO_v2_5dev9CDLOpData13ChannelParamsC2Eddd(ptr noundef nonnull align 8 dereferenceable(24) %19, double noundef %35, double noundef %38, double noundef %41)
          to label %42 unwind label %63

42:                                               ; preds = %32
  call void @llvm.lifetime.start.p0(i64 24, ptr %20) #3
  %43 = load ptr, ptr %12, align 8, !tbaa !10
  %44 = getelementptr inbounds double, ptr %43, i64 0
  %45 = load double, ptr %44, align 8, !tbaa !12
  %46 = load ptr, ptr %12, align 8, !tbaa !10
  %47 = getelementptr inbounds double, ptr %46, i64 1
  %48 = load double, ptr %47, align 8, !tbaa !12
  %49 = load ptr, ptr %12, align 8, !tbaa !10
  %50 = getelementptr inbounds double, ptr %49, i64 2
  %51 = load double, ptr %50, align 8, !tbaa !12
  invoke void @_ZN19OpenColorIO_v2_5dev9CDLOpData13ChannelParamsC2Eddd(ptr noundef nonnull align 8 dereferenceable(24) %20, double noundef %45, double noundef %48, double noundef %51)
          to label %52 unwind label %67

52:                                               ; preds = %42
  %53 = load double, ptr %13, align 8, !tbaa !12
  invoke void @_ZN19OpenColorIO_v2_5dev9CDLOpDataC1ERKNS0_5StyleERKNS0_13ChannelParamsES6_S6_d(ptr noundef nonnull align 8 dereferenceable(256) %22, ptr noundef nonnull align 4 dereferenceable(4) %9, ptr noundef nonnull align 8 dereferenceable(24) %16, ptr noundef nonnull align 8 dereferenceable(24) %19, ptr noundef nonnull align 8 dereferenceable(24) %20, double noundef %53)
          to label %54 unwind label %67

54:                                               ; preds = %52
  store i1 false, ptr %21, align 1
  invoke void @_ZNSt10shared_ptrIN19OpenColorIO_v2_5dev9CDLOpDataEEC2IS1_vEEPT_(ptr noundef nonnull align 8 dereferenceable(16) %15, ptr noundef %22)
          to label %55 unwind label %67

55:                                               ; preds = %54
  call void @llvm.lifetime.end.p0(i64 24, ptr %20) #3
  call void @llvm.lifetime.end.p0(i64 24, ptr %19) #3
  call void @llvm.lifetime.end.p0(i64 24, ptr %16) #3
  %56 = load ptr, ptr %8, align 8, !tbaa !3
  %57 = load i32, ptr %14, align 4, !tbaa !14
  invoke void @_ZN19OpenColorIO_v2_5dev11CreateCDLOpERNS_10OpRcPtrVecERSt10shared_ptrINS_9CDLOpDataEENS_18TransformDirectionE(ptr noundef nonnull align 8 dereferenceable(144) %56, ptr noundef nonnull align 8 dereferenceable(16) %15, i32 noundef %57)
          to label %58 unwind label %76

58:                                               ; preds = %55
  call void @_ZNSt12__shared_ptrIN19OpenColorIO_v2_5dev9CDLOpDataELN9__gnu_cxx12_Lock_policyE2EED2Ev(ptr noundef nonnull align 8 dereferenceable(16) %15) #3
  call void @llvm.lifetime.end.p0(i64 16, ptr %15) #3
  ret void

59:                                               ; preds = %7
  %60 = landingpad { ptr, i32 }
          cleanup
  %61 = extractvalue { ptr, i32 } %60, 0
  store ptr %61, ptr %17, align 8
  %62 = extractvalue { ptr, i32 } %60, 1
  store i32 %62, ptr %18, align 4
  br label %72

63:                                               ; preds = %32
  %64 = landingpad { ptr, i32 }
          cleanup
  %65 = extractvalue { ptr, i32 } %64, 0
  store ptr %65, ptr %17, align 8
  %66 = extractvalue { ptr, i32 } %64, 1
  store i32 %66, ptr %18, align 4
  br label %71

67:                                               ; preds = %54, %52, %42
  %68 = landingpad { ptr, i32 }
          cleanup
  %69 = extractvalue { ptr, i32 } %68, 0
  store ptr %69, ptr %17, align 8
  %70 = extractvalue { ptr, i32 } %68, 1
  store i32 %70, ptr %18, align 4
  call void @llvm.lifetime.end.p0(i64 24, ptr %20) #3
  br label %71

71:                                               ; preds = %67, %63
  call void @llvm.lifetime.end.p0(i64 24, ptr %19) #3
  br label %72

72:                                               ; preds = %71, %59
  call void @llvm.lifetime.end.p0(i64 24, ptr %16) #3
  %73 = load i1, ptr %21, align 1
  br i1 %73, label %74, label %75

74:                                               ; preds = %72
  call void @_ZdlPvm(ptr noundef %22, i64 noundef 256) #22
  br label %75

75:                                               ; preds = %74, %72
  br label %80

76:                                               ; preds = %55
  %77 = landingpad { ptr, i32 }
          cleanup
  %78 = extractvalue { ptr, i32 } %77, 0
  store ptr %78, ptr %17, align 8
  %79 = extractvalue { ptr, i32 } %77, 1
  store i32 %79, ptr %18, align 4
  call void @_ZNSt12__shared_ptrIN19OpenColorIO_v2_5dev9CDLOpDataELN9__gnu_cxx12_Lock_policyE2EED2Ev(ptr noundef nonnull align 8 dereferenceable(16) %15) #3
  br label %80

80:                                               ; preds = %76, %75
  call void @llvm.lifetime.end.p0(i64 16, ptr %15) #3
  br label %81

81:                                               ; preds = %80
  %82 = load ptr, ptr %17, align 8
  %83 = load i32, ptr %18, align 4
  %84 = insertvalue { ptr, i32 } poison, ptr %82, 0
  %85 = insertvalue { ptr, i32 } %84, i32 %83, 1
  resume { ptr, i32 } %85
}