; Function Attrs: mustprogress uwtable
define hidden void @_ZN19OpenColorIO_v2_5dev11CreateCDLOpERNS_10OpRcPtrVecENS_9CDLOpData5StyleEPKdS5_S5_dNS_18TransformDirectionE(ptr noundef nonnull align 8 dereferenceable(144) %0, i32 noundef %1, ptr noundef readonly captures(none) %2, ptr noundef readonly captures(none) %3, ptr noundef readonly captures(none) %4, double noundef %5, i32 noundef %6) local_unnamed_addr #3 personality ptr @__gxx_personality_v0 {
  %8 = alloca i32, align 4
  %9 = alloca %"class.std::shared_ptr", align 8
  %10 = alloca %"struct.OpenColorIO_v2_5dev::CDLOpData::ChannelParams", align 8
  %11 = alloca %"struct.OpenColorIO_v2_5dev::CDLOpData::ChannelParams", align 8
  %12 = alloca %"struct.OpenColorIO_v2_5dev::CDLOpData::ChannelParams", align 8
  store i32 %1, ptr %8, align 4, !tbaa !3
  call void @llvm.lifetime.start.p0(i64 16, ptr nonnull %9) #23
  %13 = tail call noalias noundef nonnull dereferenceable(256) ptr @_Znwm(i64 noundef 256) #24
  call void @llvm.lifetime.start.p0(i64 24, ptr nonnull %10) #23
  %14 = load double, ptr %2, align 8, !tbaa !7
  %15 = getelementptr inbounds nuw i8, ptr %2, i64 8
  %16 = load double, ptr %15, align 8, !tbaa !7
  %17 = getelementptr inbounds nuw i8, ptr %2, i64 16
  %18 = load double, ptr %17, align 8, !tbaa !7
  store double %14, ptr %10, align 8, !tbaa !7
  %19 = getelementptr inbounds nuw i8, ptr %10, i64 8
  store double %16, ptr %19, align 8, !tbaa !7
  %20 = getelementptr inbounds nuw i8, ptr %10, i64 16
  store double %18, ptr %20, align 8, !tbaa !7
  call void @llvm.lifetime.start.p0(i64 24, ptr nonnull %11) #23
  %21 = load double, ptr %3, align 8, !tbaa !7
  %22 = getelementptr inbounds nuw i8, ptr %3, i64 8
  %23 = load double, ptr %22, align 8, !tbaa !7
  %24 = getelementptr inbounds nuw i8, ptr %3, i64 16
  %25 = load double, ptr %24, align 8, !tbaa !7
  store double %21, ptr %11, align 8, !tbaa !7
  %26 = getelementptr inbounds nuw i8, ptr %11, i64 8
  store double %23, ptr %26, align 8, !tbaa !7
  %27 = getelementptr inbounds nuw i8, ptr %11, i64 16
  store double %25, ptr %27, align 8, !tbaa !7
  call void @llvm.lifetime.start.p0(i64 24, ptr nonnull %12) #23
  %28 = load double, ptr %4, align 8, !tbaa !7
  %29 = getelementptr inbounds nuw i8, ptr %4, i64 8
  %30 = load double, ptr %29, align 8, !tbaa !7
  %31 = getelementptr inbounds nuw i8, ptr %4, i64 16
  %32 = load double, ptr %31, align 8, !tbaa !7
  store double %28, ptr %12, align 8, !tbaa !7
  %33 = getelementptr inbounds nuw i8, ptr %12, i64 8
  store double %30, ptr %33, align 8, !tbaa !7
  %34 = getelementptr inbounds nuw i8, ptr %12, i64 16
  store double %32, ptr %34, align 8, !tbaa !7
  invoke void @_ZN19OpenColorIO_v2_5dev9CDLOpDataC1ERKNS0_5StyleERKNS0_13ChannelParamsES6_S6_d(ptr noundef nonnull align 8 dereferenceable(256) %13, ptr noundef nonnull align 4 dereferenceable(4) %8, ptr noundef nonnull align 8 dereferenceable(24) %10, ptr noundef nonnull align 8 dereferenceable(24) %11, ptr noundef nonnull align 8 dereferenceable(24) %12, double noundef %5)
          to label %35 unwind label %75

35:                                               ; preds = %7
  store ptr %13, ptr %9, align 8, !tbaa !9
  %36 = invoke noalias noundef nonnull dereferenceable(24) ptr @_Znwm(i64 noundef 24) #24
          to label %50 unwind label %37

37:                                               ; preds = %35
  %38 = landingpad { ptr, i32 }
          catch ptr null
  %39 = extractvalue { ptr, i32 } %38, 0
  %40 = call ptr @__cxa_begin_catch(ptr %39) #23
  %41 = load ptr, ptr %13, align 8, !tbaa !15
  %42 = getelementptr inbounds nuw i8, ptr %41, i64 8
  %43 = load ptr, ptr %42, align 8
  call void %43(ptr noundef nonnull align 8 dereferenceable(256) %13) #23
  invoke void @__cxa_rethrow() #25
          to label %49 unwind label %44

44:                                               ; preds = %37
  %45 = landingpad { ptr, i32 }
          cleanup
  invoke void @__cxa_end_catch()
          to label %74 unwind label %46

46:                                               ; preds = %44
  %47 = landingpad { ptr, i32 }
          catch ptr null
  %48 = extractvalue { ptr, i32 } %47, 0
  call void @__clang_call_terminate(ptr %48) #26
  unreachable

49:                                               ; preds = %37
  unreachable

50:                                               ; preds = %35
  %51 = getelementptr inbounds nuw i8, ptr %9, i64 8
  %52 = getelementptr inbounds nuw i8, ptr %36, i64 8
  store i32 1, ptr %52, align 8, !tbaa !17
  %53 = getelementptr inbounds nuw i8, ptr %36, i64 12
  store i32 1, ptr %53, align 4, !tbaa !20
  store ptr getelementptr inbounds nuw inrange(-16, 40) (i8, ptr @_ZTVSt15_Sp_counted_ptrIPN19OpenColorIO_v2_5dev9CDLOpDataELN9__gnu_cxx12_Lock_policyE2EE, i64 16), ptr %36, align 8, !tbaa !15
  %54 = getelementptr inbounds nuw i8, ptr %36, i64 16
  store ptr %13, ptr %54, align 8, !tbaa !21
  store ptr %36, ptr %51, align 8, !tbaa !23
  call void @llvm.lifetime.end.p0(i64 24, ptr nonnull %12) #23
  call void @llvm.lifetime.end.p0(i64 24, ptr nonnull %11) #23
  call void @llvm.lifetime.end.p0(i64 24, ptr nonnull %10) #23
  invoke void @_ZN19OpenColorIO_v2_5dev11CreateCDLOpERNS_10OpRcPtrVecERSt10shared_ptrINS_9CDLOpDataEENS_18TransformDirectionE(ptr noundef nonnull align 8 dereferenceable(144) %0, ptr noundef nonnull align 8 dereferenceable(16) %9, i32 noundef %6)
          to label %55 unwind label %77

55:                                               ; preds = %50
  %56 = load atomic i64, ptr %52 acquire, align 8
  %57 = icmp eq i64 %56, 4294967297
  %58 = trunc i64 %56 to i32
  br i1 %57, label %59, label %66

59:                                               ; preds = %55
  store i32 0, ptr %52, align 8, !tbaa !17
  store i32 0, ptr %53, align 4, !tbaa !20
  %60 = load ptr, ptr %36, align 8, !tbaa !15
  %61 = getelementptr inbounds nuw i8, ptr %60, i64 16
  %62 = load ptr, ptr %61, align 8
  call void %62(ptr noundef nonnull align 8 dereferenceable(16) %36) #23
  %63 = load ptr, ptr %36, align 8, !tbaa !15
  %64 = getelementptr inbounds nuw i8, ptr %63, i64 24
  %65 = load ptr, ptr %64, align 8
  call void %65(ptr noundef nonnull align 8 dereferenceable(16) %36) #23
  br label %_ZNSt12__shared_ptrIN19OpenColorIO_v2_5dev9CDLOpDataELN9__gnu_cxx12_Lock_policyE2EED2Ev.exit

66:                                               ; preds = %55
  %67 = load i8, ptr @__libc_single_threaded, align 1, !tbaa !24
  %.not.i.i.i = icmp eq i8 %67, 0
  br i1 %.not.i.i.i, label %70, label %68

68:                                               ; preds = %66
  %69 = add nsw i32 %58, -1
  store i32 %69, ptr %52, align 4, !tbaa !25
  br label %_ZN9__gnu_cxx27__exchange_and_add_dispatchEPii.exit.i.i.i

70:                                               ; preds = %66
  %71 = atomicrmw volatile add ptr %52, i32 -1 acq_rel, align 4
  br label %_ZN9__gnu_cxx27__exchange_and_add_dispatchEPii.exit.i.i.i

_ZN9__gnu_cxx27__exchange_and_add_dispatchEPii.exit.i.i.i: ; preds = %70, %68
  %.0.i.i.i.i = phi i32 [ %58, %68 ], [ %71, %70 ]
  %72 = icmp eq i32 %.0.i.i.i.i, 1
  br i1 %72, label %73, label %_ZNSt12__shared_ptrIN19OpenColorIO_v2_5dev9CDLOpDataELN9__gnu_cxx12_Lock_policyE2EED2Ev.exit, !prof !26

73:                                               ; preds = %_ZN9__gnu_cxx27__exchange_and_add_dispatchEPii.exit.i.i.i
  call void @_ZNSt16_Sp_counted_baseILN9__gnu_cxx12_Lock_policyE2EE24_M_release_last_use_coldEv(ptr noundef nonnull align 8 dereferenceable(16) %36) #23
  br label %_ZNSt12__shared_ptrIN19OpenColorIO_v2_5dev9CDLOpDataELN9__gnu_cxx12_Lock_policyE2EED2Ev.exit

_ZNSt12__shared_ptrIN19OpenColorIO_v2_5dev9CDLOpDataELN9__gnu_cxx12_Lock_policyE2EED2Ev.exit: ; preds = %59, %_ZN9__gnu_cxx27__exchange_and_add_dispatchEPii.exit.i.i.i, %73
  call void @llvm.lifetime.end.p0(i64 16, ptr nonnull %9) #23
  ret void

74:                                               ; preds = %44
  call void @llvm.lifetime.end.p0(i64 24, ptr nonnull %12) #23
  call void @llvm.lifetime.end.p0(i64 24, ptr nonnull %11) #23
  call void @llvm.lifetime.end.p0(i64 24, ptr nonnull %10) #23
  br label %79

75:                                               ; preds = %7
  %76 = landingpad { ptr, i32 }
          cleanup
  call void @llvm.lifetime.end.p0(i64 24, ptr nonnull %12) #23
  call void @llvm.lifetime.end.p0(i64 24, ptr nonnull %11) #23
  call void @llvm.lifetime.end.p0(i64 24, ptr nonnull %10) #23
  call void @_ZdlPvm(ptr noundef nonnull %13, i64 noundef 256) #27
  br label %79

77:                                               ; preds = %50
  %78 = landingpad { ptr, i32 }
          cleanup
  call void @_ZNSt12__shared_ptrIN19OpenColorIO_v2_5dev9CDLOpDataELN9__gnu_cxx12_Lock_policyE2EED2Ev(ptr noundef nonnull align 8 dereferenceable(16) %9) #23
  br label %79

79:                                               ; preds = %74, %75, %77
  %.pn22 = phi { ptr, i32 } [ %78, %77 ], [ %76, %75 ], [ %45, %74 ]
  call void @llvm.lifetime.end.p0(i64 16, ptr nonnull %9) #23
  resume { ptr, i32 } %.pn22
}